target datalayout = "e-m:e-p270:32:32-p271:32:32-p272:64:64-i64:64-i128:128-f80:128-n8:16:32:64-S128"
target triple = "x86_64-pc-linux-gnu"

%struct.Sbm_Man_t_ = type { ptr, ptr, i32, i32, i32, i32, ptr, ptr, ptr, ptr, ptr, ptr, ptr, ptr, ptr, ptr, ptr, ptr, ptr }
%struct.Vec_Int_t_ = type { i32, i32, ptr }
%struct.Vec_Wec_t_ = type { i32, i32, ptr }
%struct.Vec_Wrd_t_ = type { i32, i32, ptr }

; Function Attrs: nounwind uwtable
define internal ptr @Vec_WrdAlloc(i32 noundef %0) #0 {
  %2 = alloca i32, align 4
  %3 = alloca ptr, align 8
  store i32 %0, ptr %2, align 4
  %4 = call noalias ptr @malloc(i64 noundef 16) #9
  store ptr %4, ptr %3, align 8
  %5 = load i32, ptr %2, align 4
  %6 = icmp sgt i32 %5, 0
  br i1 %6, label %7, label %11

7:                                                ; preds = %1
  %8 = load i32, ptr %2, align 4
  %9 = icmp slt i32 %8, 16
  br i1 %9, label %10, label %11

10:                                               ; preds = %7
  store i32 16, ptr %2, align 4
  br label %11

11:                                               ; preds = %10, %7, %1
  %12 = load ptr, ptr %3, align 8
  %13 = getelementptr inbounds %struct.Vec_Wrd_t_, ptr %12, i32 0, i32 1
  store i32 0, ptr %13, align 4
  %14 = load i32, ptr %2, align 4
  %15 = load ptr, ptr %3, align 8
  %16 = getelementptr inbounds %struct.Vec_Wrd_t_, ptr %15, i32 0, i32 0
  store i32 %14, ptr %16, align 8
  %17 = load ptr, ptr %3, align 8
  %18 = getelementptr inbounds %struct.Vec_Wrd_t_, ptr %17, i32 0, i32 0
  %19 = load i32, ptr %18, align 8
  %20 = icmp ne i32 %19, 0
  br i1 %20, label %21, label %28

21:                                               ; preds = %11
  %22 = load ptr, ptr %3, align 8
  %23 = getelementptr inbounds %struct.Vec_Wrd_t_, ptr %22, i32 0, i32 0
  %24 = load i32, ptr %23, align 8
  %25 = sext i32 %24 to i64
  %26 = mul i64 8, %25
  %27 = call noalias ptr @malloc(i64 noundef %26) #9
  br label %29

28:                                               ; preds = %11
  br label %29

29:                                               ; preds = %28, %21
  %30 = phi ptr [ %27, %21 ], [ null, %28 ]
  %31 = load ptr, ptr %3, align 8
  %32 = getelementptr inbounds %struct.Vec_Wrd_t_, ptr %31, i32 0, i32 2
  store ptr %30, ptr %32, align 8
  %33 = load ptr, ptr %3, align 8
  ret ptr %33
}

; Function Attrs: nounwind uwtable
define internal ptr @Vec_WecAlloc(i32 noundef %0) #0 {
  %2 = alloca i32, align 4
  %3 = alloca ptr, align 8
  store i32 %0, ptr %2, align 4
  %4 = call noalias ptr @malloc(i64 noundef 16) #9
  store ptr %4, ptr %3, align 8
  %5 = load i32, ptr %2, align 4
  %6 = icmp sgt i32 %5, 0
  br i1 %6, label %7, label %11

7:                                                ; preds = %1
  %8 = load i32, ptr %2, align 4
  %9 = icmp slt i32 %8, 8
  br i1 %9, label %10, label %11

10:                                               ; preds = %7
  store i32 8, ptr %2, align 4
  br label %11

11:                                               ; preds = %10, %7, %1
  %12 = load ptr, ptr %3, align 8
  %13 = getelementptr inbounds %struct.Vec_Wec_t_, ptr %12, i32 0, i32 1
  store i32 0, ptr %13, align 4
  %14 = load i32, ptr %2, align 4
  %15 = load ptr, ptr %3, align 8
  %16 = getelementptr inbounds %struct.Vec_Wec_t_, ptr %15, i32 0, i32 0
  store i32 %14, ptr %16, align 8
  %17 = load ptr, ptr %3, align 8
  %18 = getelementptr inbounds %struct.Vec_Wec_t_, ptr %17, i32 0, i32 0
  %19 = load i32, ptr %18, align 8
  %20 = icmp ne i32 %19, 0
  br i1 %20, label %21, label %27

21:                                               ; preds = %11
  %22 = load ptr, ptr %3, align 8
  %23 = getelementptr inbounds %struct.Vec_Wec_t_, ptr %22, i32 0, i32 0
  %24 = load i32, ptr %23, align 8
  %25 = sext i32 %24 to i64
  %26 = call noalias ptr @calloc(i64 noundef %25, i64 noundef 16) #11
  br label %28

27:                                               ; preds = %11
  br label %28

28:                                               ; preds = %27, %21
  %29 = phi ptr [ %26, %21 ], [ null, %27 ]
  %30 = load ptr, ptr %3, align 8
  %31 = getelementptr inbounds %struct.Vec_Wec_t_, ptr %30, i32 0, i32 2
  store ptr %29, ptr %31, align 8
  %32 = load ptr, ptr %3, align 8
  ret ptr %32
}

; Function Attrs: nounwind uwtable
define internal ptr @Vec_IntAlloc(i32 noundef %0) #0 {
  %2 = alloca i32, align 4
  %3 = alloca ptr, align 8
  store i32 %0, ptr %2, align 4
  %4 = call noalias ptr @malloc(i64 noundef 16) #9
  store ptr %4, ptr %3, align 8
  %5 = load i32, ptr %2, align 4
  %6 = icmp sgt i32 %5, 0
  br i1 %6, label %7, label %11

7:                                                ; preds = %1
  %8 = load i32, ptr %2, align 4
  %9 = icmp slt i32 %8, 16
  br i1 %9, label %10, label %11

10:                                               ; preds = %7
  store i32 16, ptr %2, align 4
  br label %11

11:                                               ; preds = %10, %7, %1
  %12 = load ptr, ptr %3, align 8
  %13 = getelementptr inbounds %struct.Vec_Int_t_, ptr %12, i32 0, i32 1
  store i32 0, ptr %13, align 4
  %14 = load i32, ptr %2, align 4
  %15 = load ptr, ptr %3, align 8
  %16 = getelementptr inbounds %struct.Vec_Int_t_, ptr %15, i32 0, i32 0
  store i32 %14, ptr %16, align 8
  %17 = load ptr, ptr %3, align 8
  %18 = getelementptr inbounds %struct.Vec_Int_t_, ptr %17, i32 0, i32 0
  %19 = load i32, ptr %18, align 8
  %20 = icmp ne i32 %19, 0
  br i1 %20, label %21, label %28

21:                                               ; preds = %11
  %22 = load ptr, ptr %3, align 8
  %23 = getelementptr inbounds %struct.Vec_Int_t_, ptr %22, i32 0, i32 0
  %24 = load i32, ptr %23, align 8
  %25 = sext i32 %24 to i64
  %26 = mul i64 4, %25
  %27 = call noalias ptr @malloc(i64 noundef %26) #9
  br label %29

28:                                               ; preds = %11
  br label %29

29:                                               ; preds = %28, %21
  %30 = phi ptr [ %27, %21 ], [ null, %28 ]
  %31 = load ptr, ptr %3, align 8
  %32 = getelementptr inbounds %struct.Vec_Int_t_, ptr %31, i32 0, i32 2
  store ptr %30, ptr %32, align 8
  %33 = load ptr, ptr %3, align 8
  ret ptr %33
}

; Function Attrs: nounwind uwtable
define ptr @Sbm_ManAlloc(i32 noundef %0) #0 {
  %2 = alloca i32, align 4
  %3 = alloca ptr, align 8
  store i32 %0, ptr %2, align 4
  %4 = call noalias ptr @calloc(i64 noundef 1, i64 noundef 136) #11
  store ptr %4, ptr %3, align 8
  %5 = load i32, ptr %2, align 4
  %6 = load ptr, ptr %3, align 8
  %7 = getelementptr inbounds %struct.Sbm_Man_t_, ptr %6, i32 0, i32 1
  %8 = call ptr @Sbm_AddCardinSolver(i32 noundef %5, ptr noundef %7)
  %9 = load ptr, ptr %3, align 8
  %10 = getelementptr inbounds %struct.Sbm_Man_t_, ptr %9, i32 0, i32 0
  store ptr %8, ptr %10, align 8
  %11 = load i32, ptr %2, align 4
  %12 = load ptr, ptr %3, align 8
  %13 = getelementptr inbounds %struct.Sbm_Man_t_, ptr %12, i32 0, i32 2
  store i32 %11, ptr %13, align 8
  %14 = load ptr, ptr %3, align 8
  %15 = getelementptr inbounds %struct.Sbm_Man_t_, ptr %14, i32 0, i32 0
  %16 = load ptr, ptr %15, align 8
  %17 = call i32 @sat_solver_nvars(ptr noundef %16)
  %18 = load ptr, ptr %3, align 8
  %19 = getelementptr inbounds %struct.Sbm_Man_t_, ptr %18, i32 0, i32 3
  store i32 %17, ptr %19, align 4
  %20 = call ptr @Vec_IntAlloc(i32 noundef 100)
  %21 = load ptr, ptr %3, align 8
  %22 = getelementptr inbounds %struct.Sbm_Man_t_, ptr %21, i32 0, i32 6
  store ptr %20, ptr %22, align 8
  %23 = call ptr @Vec_WecAlloc(i32 noundef 1000)
  %24 = load ptr, ptr %3, align 8
  %25 = getelementptr inbounds %struct.Sbm_Man_t_, ptr %24, i32 0, i32 7
  store ptr %23, ptr %25, align 8
  %26 = call ptr @Vec_WecAlloc(i32 noundef 1000)
  %27 = load ptr, ptr %3, align 8
  %28 = getelementptr inbounds %struct.Sbm_Man_t_, ptr %27, i32 0, i32 8
  store ptr %26, ptr %28, align 8
  %29 = call ptr @Vec_IntAlloc(i32 noundef 100)
  %30 = load ptr, ptr %3, align 8
  %31 = getelementptr inbounds %struct.Sbm_Man_t_, ptr %30, i32 0, i32 9
  store ptr %29, ptr %31, align 8
  %32 = call ptr @Vec_IntAlloc(i32 noundef 100)
  %33 = load ptr, ptr %3, align 8
  %34 = getelementptr inbounds %struct.Sbm_Man_t_, ptr %33, i32 0, i32 10
  store ptr %32, ptr %34, align 8
  %35 = call ptr @Vec_WrdAlloc(i32 noundef 100)
  %36 = load ptr, ptr %3, align 8
  %37 = getelementptr inbounds %struct.Sbm_Man_t_, ptr %36, i32 0, i32 11
  store ptr %35, ptr %37, align 8
  %38 = call ptr @Vec_IntAlloc(i32 noundef 100)
  %39 = load ptr, ptr %3, align 8
  %40 = getelementptr inbounds %struct.Sbm_Man_t_, ptr %39, i32 0, i32 12
  store ptr %38, ptr %40, align 8
  %41 = call ptr @Vec_IntAlloc(i32 noundef 100)
  %42 = load ptr, ptr %3, align 8
  %43 = getelementptr inbounds %struct.Sbm_Man_t_, ptr %42, i32 0, i32 13
  store ptr %41, ptr %43, align 8
  %44 = call ptr @Vec_IntAlloc(i32 noundef 100)
  %45 = load ptr, ptr %3, align 8
  %46 = getelementptr inbounds %struct.Sbm_Man_t_, ptr %45, i32 0, i32 14
  store ptr %44, ptr %46, align 8
  %47 = call ptr @Vec_IntAlloc(i32 noundef 100)
  %48 = load ptr, ptr %3, align 8
  %49 = getelementptr inbounds %struct.Sbm_Man_t_, ptr %48, i32 0, i32 15
  store ptr %47, ptr %49, align 8
  %50 = call ptr @Vec_IntAlloc(i32 noundef 100)
  %51 = load ptr, ptr %3, align 8
  %52 = getelementptr inbounds %struct.Sbm_Man_t_, ptr %51, i32 0, i32 16
  store ptr %50, ptr %52, align 8
  %53 = call ptr @Vec_IntAlloc(i32 noundef 100)
  %54 = load ptr, ptr %3, align 8
  %55 = getelementptr inbounds %struct.Sbm_Man_t_, ptr %54, i32 0, i32 17
  store ptr %53, ptr %55, align 8
  %56 = call ptr @Vec_IntAlloc(i32 noundef 100)
  %57 = load ptr, ptr %3, align 8
  %58 = getelementptr inbounds %struct.Sbm_Man_t_, ptr %57, i32 0, i32 18
  store ptr %56, ptr %58, align 8
  %59 = load ptr, ptr %3, align 8
  ret ptr %59
}