; Function Attrs: nounwind uwtable
define noalias noundef ptr @Sbm_ManAlloc(i32 noundef %0) local_unnamed_addr #0 {
  %2 = tail call noalias dereferenceable_or_null(136) ptr @calloc(i64 noundef 1, i64 noundef 136) #17
  %3 = getelementptr inbounds nuw i8, ptr %2, i64 8
  %4 = tail call ptr @Sbm_AddCardinSolver(i32 noundef %0, ptr noundef nonnull %3)
  store ptr %4, ptr %2, align 8
  %5 = getelementptr inbounds nuw i8, ptr %2, i64 16
  store i32 %0, ptr %5, align 8
  %6 = tail call i32 @sat_solver_nvars(ptr noundef %4) #16
  %7 = getelementptr inbounds nuw i8, ptr %2, i64 20
  store i32 %6, ptr %7, align 4
  %8 = tail call noalias dereferenceable_or_null(16) ptr @malloc(i64 noundef 16) #15
  %9 = getelementptr inbounds nuw i8, ptr %8, i64 4
  store i32 0, ptr %9, align 4
  store i32 100, ptr %8, align 8
  %10 = tail call noalias dereferenceable_or_null(400) ptr @malloc(i64 noundef 400) #15
  %11 = getelementptr inbounds nuw i8, ptr %8, i64 8
  store ptr %10, ptr %11, align 8
  %12 = getelementptr inbounds nuw i8, ptr %2, i64 32
  store ptr %8, ptr %12, align 8
  %13 = tail call noalias dereferenceable_or_null(16) ptr @malloc(i64 noundef 16) #15
  %14 = getelementptr inbounds nuw i8, ptr %13, i64 4
  store i32 0, ptr %14, align 4
  store i32 1000, ptr %13, align 8
  %15 = tail call noalias dereferenceable_or_null(16000) ptr @calloc(i64 noundef 1000, i64 noundef 16) #17
  %16 = getelementptr inbounds nuw i8, ptr %13, i64 8
  store ptr %15, ptr %16, align 8
  %17 = getelementptr inbounds nuw i8, ptr %2, i64 40
  store ptr %13, ptr %17, align 8
  %18 = tail call noalias dereferenceable_or_null(16) ptr @malloc(i64 noundef 16) #15
  %19 = getelementptr inbounds nuw i8, ptr %18, i64 4
  store i32 0, ptr %19, align 4
  store i32 1000, ptr %18, align 8
  %20 = tail call noalias dereferenceable_or_null(16000) ptr @calloc(i64 noundef 1000, i64 noundef 16) #17
  %21 = getelementptr inbounds nuw i8, ptr %18, i64 8
  store ptr %20, ptr %21, align 8
  %22 = getelementptr inbounds nuw i8, ptr %2, i64 48
  store ptr %18, ptr %22, align 8
  %23 = tail call noalias dereferenceable_or_null(16) ptr @malloc(i64 noundef 16) #15
  %24 = getelementptr inbounds nuw i8, ptr %23, i64 4
  store i32 0, ptr %24, align 4
  store i32 100, ptr %23, align 8
  %25 = tail call noalias dereferenceable_or_null(400) ptr @malloc(i64 noundef 400) #15
  %26 = getelementptr inbounds nuw i8, ptr %23, i64 8
  store ptr %25, ptr %26, align 8
  %27 = getelementptr inbounds nuw i8, ptr %2, i64 56
  store ptr %23, ptr %27, align 8
  %28 = tail call noalias dereferenceable_or_null(16) ptr @malloc(i64 noundef 16) #15
  %29 = getelementptr inbounds nuw i8, ptr %28, i64 4
  store i32 0, ptr %29, align 4
  store i32 100, ptr %28, align 8
  %30 = tail call noalias dereferenceable_or_null(400) ptr @malloc(i64 noundef 400) #15
  %31 = getelementptr inbounds nuw i8, ptr %28, i64 8
  store ptr %30, ptr %31, align 8
  %32 = getelementptr inbounds nuw i8, ptr %2, i64 64
  store ptr %28, ptr %32, align 8
  %33 = tail call noalias dereferenceable_or_null(16) ptr @malloc(i64 noundef 16) #15
  %34 = getelementptr inbounds nuw i8, ptr %33, i64 4
  store i32 0, ptr %34, align 4
  store i32 100, ptr %33, align 8
  %35 = tail call noalias dereferenceable_or_null(800) ptr @malloc(i64 noundef 800) #15
  %36 = getelementptr inbounds nuw i8, ptr %33, i64 8
  store ptr %35, ptr %36, align 8
  %37 = getelementptr inbounds nuw i8, ptr %2, i64 72
  store ptr %33, ptr %37, align 8
  %38 = tail call noalias dereferenceable_or_null(16) ptr @malloc(i64 noundef 16) #15
  %39 = getelementptr inbounds nuw i8, ptr %38, i64 4
  store i32 0, ptr %39, align 4
  store i32 100, ptr %38, align 8
  %40 = tail call noalias dereferenceable_or_null(400) ptr @malloc(i64 noundef 400) #15
  %41 = getelementptr inbounds nuw i8, ptr %38, i64 8
  store ptr %40, ptr %41, align 8
  %42 = getelementptr inbounds nuw i8, ptr %2, i64 80
  store ptr %38, ptr %42, align 8
  %43 = tail call noalias dereferenceable_or_null(16) ptr @malloc(i64 noundef 16) #15
  %44 = getelementptr inbounds nuw i8, ptr %43, i64 4
  store i32 0, ptr %44, align 4
  store i32 100, ptr %43, align 8
  %45 = tail call noalias dereferenceable_or_null(400) ptr @malloc(i64 noundef 400) #15
  %46 = getelementptr inbounds nuw i8, ptr %43, i64 8
  store ptr %45, ptr %46, align 8
  %47 = getelementptr inbounds nuw i8, ptr %2, i64 88
  store ptr %43, ptr %47, align 8
  %48 = tail call noalias dereferenceable_or_null(16) ptr @malloc(i64 noundef 16) #15
  %49 = getelementptr inbounds nuw i8, ptr %48, i64 4
  store i32 0, ptr %49, align 4
  store i32 100, ptr %48, align 8
  %50 = tail call noalias dereferenceable_or_null(400) ptr @malloc(i64 noundef 400) #15
  %51 = getelementptr inbounds nuw i8, ptr %48, i64 8
  store ptr %50, ptr %51, align 8
  %52 = getelementptr inbounds nuw i8, ptr %2, i64 96
  store ptr %48, ptr %52, align 8
  %53 = tail call noalias dereferenceable_or_null(16) ptr @malloc(i64 noundef 16) #15
  %54 = getelementptr inbounds nuw i8, ptr %53, i64 4
  store i32 0, ptr %54, align 4
  store i32 100, ptr %53, align 8
  %55 = tail call noalias dereferenceable_or_null(400) ptr @malloc(i64 noundef 400) #15
  %56 = getelementptr inbounds nuw i8, ptr %53, i64 8
  store ptr %55, ptr %56, align 8
  %57 = getelementptr inbounds nuw i8, ptr %2, i64 104
  store ptr %53, ptr %57, align 8
  %58 = tail call noalias dereferenceable_or_null(16) ptr @malloc(i64 noundef 16) #15
  %59 = getelementptr inbounds nuw i8, ptr %58, i64 4
  store i32 0, ptr %59, align 4
  store i32 100, ptr %58, align 8
  %60 = tail call noalias dereferenceable_or_null(400) ptr @malloc(i64 noundef 400) #15
  %61 = getelementptr inbounds nuw i8, ptr %58, i64 8
  store ptr %60, ptr %61, align 8
  %62 = getelementptr inbounds nuw i8, ptr %2, i64 112
  store ptr %58, ptr %62, align 8
  %63 = tail call noalias dereferenceable_or_null(16) ptr @malloc(i64 noundef 16) #15
  %64 = getelementptr inbounds nuw i8, ptr %63, i64 4
  store i32 0, ptr %64, align 4
  store i32 100, ptr %63, align 8
  %65 = tail call noalias dereferenceable_or_null(400) ptr @malloc(i64 noundef 400) #15
  %66 = getelementptr inbounds nuw i8, ptr %63, i64 8
  store ptr %65, ptr %66, align 8
  %67 = getelementptr inbounds nuw i8, ptr %2, i64 120
  store ptr %63, ptr %67, align 8
  %68 = tail call noalias dereferenceable_or_null(16) ptr @malloc(i64 noundef 16) #15
  %69 = getelementptr inbounds nuw i8, ptr %68, i64 4
  store i32 0, ptr %69, align 4
  store i32 100, ptr %68, align 8
  %70 = tail call noalias dereferenceable_or_null(400) ptr @malloc(i64 noundef 400) #15
  %71 = getelementptr inbounds nuw i8, ptr %68, i64 8
  store ptr %70, ptr %71, align 8
  %72 = getelementptr inbounds nuw i8, ptr %2, i64 128
  store ptr %68, ptr %72, align 8
  ret ptr %2
}